; Function Attrs: mustprogress uwtable
define void @_Z24_gmx_sel_evaluate_staticP18gmx_sel_evaluate_tRKSt10shared_ptrIN3gmx20SelectionTreeElementEEP15gmx_ana_index_t(ptr nocapture readnone %0, ptr nocapture noundef nonnull readonly align 8 dereferenceable(16) %1, ptr noundef %2) #2 {
  %4 = load ptr, ptr %1, align 8
  %5 = getelementptr inbounds i8, ptr %4, i64 40
  %6 = load i32, ptr %5, align 8
  %7 = and i32 %6, 32
  %.not = icmp eq i32 %7, 0
  %8 = getelementptr inbounds i8, ptr %4, i64 16
  %9 = load ptr, ptr %8, align 8
  %10 = getelementptr inbounds i8, ptr %4, i64 48
  br i1 %.not, label %17, label %11

11:                                               ; preds = %3
  %12 = load i32, ptr %10, align 8
  tail call void @_Z21gmx_ana_index_reserveP15gmx_ana_index_ti(ptr noundef %9, i32 noundef %12)
  %13 = load ptr, ptr %1, align 8
  %14 = getelementptr inbounds i8, ptr %13, i64 16
  %15 = load ptr, ptr %14, align 8
  %16 = getelementptr inbounds i8, ptr %13, i64 48
  tail call void @_Z18gmx_ana_index_copyP15gmx_ana_index_tS0_b(ptr noundef %15, ptr noundef nonnull %16, i1 noundef zeroext false)
  br label %18

17:                                               ; preds = %3
  tail call void @_Z26gmx_ana_index_intersectionP15gmx_ana_index_tS0_S0_(ptr noundef %9, ptr noundef nonnull %10, ptr noundef %2)
  br label %18

18:                                               ; preds = %17, %11
  ret void
}